target datalayout = "e-m:e-p270:32:32-p271:32:32-p272:64:64-i64:64-i128:128-f80:128-n8:16:32:64-S128"
target triple = "x86_64-pc-linux-gnu"

%struct.AVCodecParserContext = type { ptr, ptr, i64, i64, i64, i32, i32, i64, i64, i64, i64, i32, i32, [4 x i64], [4 x i64], [4 x i64], i32, i64, [4 x i64], i32, i32, i32, i32, [4 x i64], i64, i64, i32, i32, i32, i32, i32, i32, i32, i32, i32 }
%struct.ParseContext = type { ptr, i32, i32, i32, i32, i32, i32, i32, i64 }

; Function Attrs: nounwind uwtable
define internal void @parse_avs2_units(ptr noundef %0, ptr noundef %1, i32 noundef %2, ptr noundef %3) #0 {
  %5 = alloca ptr, align 8
  %6 = alloca ptr, align 8
  %7 = alloca i32, align 4
  %8 = alloca ptr, align 8
  %9 = alloca i32, align 4
  store ptr %0, ptr %5, align 8, !tbaa !4
  store ptr %1, ptr %6, align 8, !tbaa !16
  store i32 %2, ptr %7, align 4, !tbaa !18
  store ptr %3, ptr %8, align 8, !tbaa !9
  %10 = load i32, ptr %7, align 4, !tbaa !18
  %11 = icmp slt i32 %10, 5
  br i1 %11, label %12, label %13

12:                                               ; preds = %4
  br label %77

13:                                               ; preds = %4
  %14 = load ptr, ptr %6, align 8, !tbaa !16
  %15 = getelementptr inbounds i8, ptr %14, i64 0
  %16 = load i8, ptr %15, align 1, !tbaa !30
  %17 = zext i8 %16 to i32
  %18 = icmp eq i32 %17, 0
  br i1 %18, label %19, label %31

19:                                               ; preds = %13
  %20 = load ptr, ptr %6, align 8, !tbaa !16
  %21 = getelementptr inbounds i8, ptr %20, i64 1
  %22 = load i8, ptr %21, align 1, !tbaa !30
  %23 = zext i8 %22 to i32
  %24 = icmp eq i32 %23, 0
  br i1 %24, label %25, label %31

25:                                               ; preds = %19
  %26 = load ptr, ptr %6, align 8, !tbaa !16
  %27 = getelementptr inbounds i8, ptr %26, i64 2
  %28 = load i8, ptr %27, align 1, !tbaa !30
  %29 = zext i8 %28 to i32
  %30 = icmp eq i32 %29, 1
  br i1 %30, label %32, label %31

31:                                               ; preds = %25, %19, %13
  br label %77

32:                                               ; preds = %25
  %33 = load ptr, ptr %6, align 8, !tbaa !16
  %34 = getelementptr inbounds i8, ptr %33, i64 3
  %35 = load i8, ptr %34, align 1, !tbaa !30
  %36 = zext i8 %35 to i32
  switch i32 %36, label %77 [
    i32 176, label %37
    i32 179, label %44
    i32 182, label %49
  ]

37:                                               ; preds = %32
  %38 = load ptr, ptr %5, align 8, !tbaa !4
  %39 = load ptr, ptr %6, align 8, !tbaa !16
  %40 = getelementptr inbounds i8, ptr %39, i64 4
  %41 = load i32, ptr %7, align 4, !tbaa !18
  %42 = sub nsw i32 %41, 4
  %43 = load ptr, ptr %8, align 8, !tbaa !9
  call void @parse_avs2_seq_header(ptr noundef %38, ptr noundef %40, i32 noundef %42, ptr noundef %43)
  br label %77

44:                                               ; preds = %32
  %45 = load ptr, ptr %5, align 8, !tbaa !4
  %46 = getelementptr inbounds nuw %struct.AVCodecParserContext, ptr %45, i32 0, i32 19
  store i32 1, ptr %46, align 8, !tbaa !34
  %47 = load ptr, ptr %5, align 8, !tbaa !4
  %48 = getelementptr inbounds nuw %struct.AVCodecParserContext, ptr %47, i32 0, i32 5
  store i32 1, ptr %48, align 8, !tbaa !35
  br label %77

49:                                               ; preds = %32
  %50 = load ptr, ptr %5, align 8, !tbaa !4
  %51 = getelementptr inbounds nuw %struct.AVCodecParserContext, ptr %50, i32 0, i32 19
  store i32 0, ptr %51, align 8, !tbaa !34
  %52 = load i32, ptr %7, align 4, !tbaa !18
  %53 = icmp sgt i32 %52, 9
  br i1 %53, label %54, label %76

54:                                               ; preds = %49
  call void @llvm.lifetime.start.p0(i64 4, ptr %9) #5
  %55 = load ptr, ptr %6, align 8, !tbaa !16
  %56 = getelementptr inbounds i8, ptr %55, i64 8
  %57 = load i8, ptr %56, align 1, !tbaa !30
  %58 = zext i8 %57 to i32
  %59 = and i32 %58, 3
  store i32 %59, ptr %9, align 4, !tbaa !18
  %60 = load i32, ptr %9, align 4, !tbaa !18
  %61 = icmp eq i32 %60, 1
  br i1 %61, label %62, label %65

62:                                               ; preds = %54
  %63 = load ptr, ptr %5, align 8, !tbaa !4
  %64 = getelementptr inbounds nuw %struct.AVCodecParserContext, ptr %63, i32 0, i32 5
  store i32 2, ptr %64, align 8, !tbaa !35
  br label %75

65:                                               ; preds = %54
  %66 = load i32, ptr %9, align 4, !tbaa !18
  %67 = icmp eq i32 %66, 3
  br i1 %67, label %68, label %71

68:                                               ; preds = %65
  %69 = load ptr, ptr %5, align 8, !tbaa !4
  %70 = getelementptr inbounds nuw %struct.AVCodecParserContext, ptr %69, i32 0, i32 5
  store i32 4, ptr %70, align 8, !tbaa !35
  br label %74

71:                                               ; preds = %65
  %72 = load ptr, ptr %5, align 8, !tbaa !4
  %73 = getelementptr inbounds nuw %struct.AVCodecParserContext, ptr %72, i32 0, i32 5
  store i32 3, ptr %73, align 8, !tbaa !35
  br label %74

74:                                               ; preds = %71, %68
  br label %75

75:                                               ; preds = %74, %62
  call void @llvm.lifetime.end.p0(i64 4, ptr %9) #5
  br label %76

76:                                               ; preds = %75, %49
  br label %77

77:                                               ; preds = %12, %31, %37, %44, %76, %32
  ret void
}

; Function Attrs: nounwind uwtable
define internal i32 @avs2_find_frame_end(ptr noundef %0, ptr noundef %1, i32 noundef %2) #0 {
  %4 = alloca i32, align 4
  %5 = alloca ptr, align 8
  %6 = alloca ptr, align 8
  %7 = alloca i32, align 4
  %8 = alloca i32, align 4
  %9 = alloca i32, align 4
  %10 = alloca i32, align 4
  %11 = alloca i32, align 4
  store ptr %0, ptr %5, align 8, !tbaa !24
  store ptr %1, ptr %6, align 8, !tbaa !16
  store i32 %2, ptr %7, align 4, !tbaa !18
  call void @llvm.lifetime.start.p0(i64 4, ptr %8) #5
  %12 = load ptr, ptr %5, align 8, !tbaa !24
  %13 = getelementptr inbounds nuw %struct.ParseContext, ptr %12, i32 0, i32 5
  %14 = load i32, ptr %13, align 8, !tbaa !27
  store i32 %14, ptr %8, align 4, !tbaa !18
  call void @llvm.lifetime.start.p0(i64 4, ptr %9) #5
  %15 = load ptr, ptr %5, align 8, !tbaa !24
  %16 = getelementptr inbounds nuw %struct.ParseContext, ptr %15, i32 0, i32 4
  %17 = load i32, ptr %16, align 4, !tbaa !29
  store i32 %17, ptr %9, align 4, !tbaa !18
  call void @llvm.lifetime.start.p0(i64 4, ptr %10) #5
  store i32 0, ptr %10, align 4, !tbaa !18
  %18 = load i32, ptr %8, align 4, !tbaa !18
  %19 = icmp ne i32 %18, 0
  br i1 %19, label %62, label %20

20:                                               ; preds = %3
  br label %21

21:                                               ; preds = %58, %20
  %22 = load i32, ptr %10, align 4, !tbaa !18
  %23 = load i32, ptr %7, align 4, !tbaa !18
  %24 = icmp slt i32 %22, %23
  br i1 %24, label %25, label %61

25:                                               ; preds = %21
  %26 = load i32, ptr %9, align 4, !tbaa !18
  %27 = shl i32 %26, 8
  %28 = load ptr, ptr %6, align 8, !tbaa !16
  %29 = load i32, ptr %10, align 4, !tbaa !18
  %30 = sext i32 %29 to i64
  %31 = getelementptr inbounds i8, ptr %28, i64 %30
  %32 = load i8, ptr %31, align 1, !tbaa !30
  %33 = zext i8 %32 to i32
  %34 = or i32 %27, %33
  store i32 %34, ptr %9, align 4, !tbaa !18
  %35 = load i32, ptr %9, align 4, !tbaa !18
  %36 = and i32 %35, -256
  %37 = icmp eq i32 %36, 256
  br i1 %37, label %38, label %57

38:                                               ; preds = %25
  %39 = load ptr, ptr %6, align 8, !tbaa !16
  %40 = load i32, ptr %10, align 4, !tbaa !18
  %41 = sext i32 %40 to i64
  %42 = getelementptr inbounds i8, ptr %39, i64 %41
  %43 = load i8, ptr %42, align 1, !tbaa !30
  %44 = zext i8 %43 to i32
  %45 = icmp eq i32 %44, 179
  br i1 %45, label %54, label %46

46:                                               ; preds = %38
  %47 = load ptr, ptr %6, align 8, !tbaa !16
  %48 = load i32, ptr %10, align 4, !tbaa !18
  %49 = sext i32 %48 to i64
  %50 = getelementptr inbounds i8, ptr %47, i64 %49
  %51 = load i8, ptr %50, align 1, !tbaa !30
  %52 = zext i8 %51 to i32
  %53 = icmp eq i32 %52, 182
  br i1 %53, label %54, label %57

54:                                               ; preds = %46, %38
  %55 = load i32, ptr %10, align 4, !tbaa !18
  %56 = add nsw i32 %55, 1
  store i32 %56, ptr %10, align 4, !tbaa !18
  store i32 1, ptr %8, align 4, !tbaa !18
  br label %61

57:                                               ; preds = %46, %25
  br label %58

58:                                               ; preds = %57
  %59 = load i32, ptr %10, align 4, !tbaa !18
  %60 = add nsw i32 %59, 1
  store i32 %60, ptr %10, align 4, !tbaa !18
  br label %21, !llvm.loop !31

61:                                               ; preds = %54, %21
  br label %62

62:                                               ; preds = %61, %3
  %63 = load i32, ptr %8, align 4, !tbaa !18
  %64 = icmp ne i32 %63, 0
  br i1 %64, label %65, label %123

65:                                               ; preds = %62
  %66 = load i32, ptr %7, align 4, !tbaa !18
  %67 = icmp ne i32 %66, 0
  br i1 %67, label %69, label %68

68:                                               ; preds = %65
  store i32 -100, ptr %4, align 4
  store i32 1, ptr %11, align 4
  br label %130

69:                                               ; preds = %65
  br label %70

70:                                               ; preds = %119, %69
  %71 = load i32, ptr %10, align 4, !tbaa !18
  %72 = load i32, ptr %7, align 4, !tbaa !18
  %73 = icmp slt i32 %71, %72
  br i1 %73, label %74, label %122

74:                                               ; preds = %70
  %75 = load i32, ptr %9, align 4, !tbaa !18
  %76 = shl i32 %75, 8
  %77 = load ptr, ptr %6, align 8, !tbaa !16
  %78 = load i32, ptr %10, align 4, !tbaa !18
  %79 = sext i32 %78 to i64
  %80 = getelementptr inbounds i8, ptr %77, i64 %79
  %81 = load i8, ptr %80, align 1, !tbaa !30
  %82 = zext i8 %81 to i32
  %83 = or i32 %76, %82
  store i32 %83, ptr %9, align 4, !tbaa !18
  %84 = load i32, ptr %9, align 4, !tbaa !18
  %85 = and i32 %84, -256
  %86 = icmp eq i32 %85, 256
  br i1 %86, label %87, label %118

87:                                               ; preds = %74
  %88 = load ptr, ptr %6, align 8, !tbaa !16
  %89 = load i32, ptr %10, align 4, !tbaa !18
  %90 = sext i32 %89 to i64
  %91 = getelementptr inbounds i8, ptr %88, i64 %90
  %92 = load i8, ptr %91, align 1, !tbaa !30
  %93 = zext i8 %92 to i32
  %94 = icmp eq i32 %93, 176
  br i1 %94, label %111, label %95

95:                                               ; preds = %87
  %96 = load ptr, ptr %6, align 8, !tbaa !16
  %97 = load i32, ptr %10, align 4, !tbaa !18
  %98 = sext i32 %97 to i64
  %99 = getelementptr inbounds i8, ptr %96, i64 %98
  %100 = load i8, ptr %99, align 1, !tbaa !30
  %101 = zext i8 %100 to i32
  %102 = icmp eq i32 %101, 179
  br i1 %102, label %111, label %103

103:                                              ; preds = %95
  %104 = load ptr, ptr %6, align 8, !tbaa !16
  %105 = load i32, ptr %10, align 4, !tbaa !18
  %106 = sext i32 %105 to i64
  %107 = getelementptr inbounds i8, ptr %104, i64 %106
  %108 = load i8, ptr %107, align 1, !tbaa !30
  %109 = zext i8 %108 to i32
  %110 = icmp eq i32 %109, 182
  br i1 %110, label %111, label %118

111:                                              ; preds = %103, %95, %87
  %112 = load ptr, ptr %5, align 8, !tbaa !24
  %113 = getelementptr inbounds nuw %struct.ParseContext, ptr %112, i32 0, i32 5
  store i32 0, ptr %113, align 8, !tbaa !27
  %114 = load ptr, ptr %5, align 8, !tbaa !24
  %115 = getelementptr inbounds nuw %struct.ParseContext, ptr %114, i32 0, i32 4
  store i32 -1, ptr %115, align 4, !tbaa !29
  %116 = load i32, ptr %10, align 4, !tbaa !18
  %117 = sub nsw i32 %116, 3
  store i32 %117, ptr %4, align 4
  store i32 1, ptr %11, align 4
  br label %130

118:                                              ; preds = %103, %74
  br label %119

119:                                              ; preds = %118
  %120 = load i32, ptr %10, align 4, !tbaa !18
  %121 = add nsw i32 %120, 1
  store i32 %121, ptr %10, align 4, !tbaa !18
  br label %70, !llvm.loop !33

122:                                              ; preds = %70
  br label %123

123:                                              ; preds = %122, %62
  %124 = load i32, ptr %8, align 4, !tbaa !18
  %125 = load ptr, ptr %5, align 8, !tbaa !24
  %126 = getelementptr inbounds nuw %struct.ParseContext, ptr %125, i32 0, i32 5
  store i32 %124, ptr %126, align 8, !tbaa !27
  %127 = load i32, ptr %9, align 4, !tbaa !18
  %128 = load ptr, ptr %5, align 8, !tbaa !24
  %129 = getelementptr inbounds nuw %struct.ParseContext, ptr %128, i32 0, i32 4
  store i32 %127, ptr %129, align 4, !tbaa !29
  store i32 -100, ptr %4, align 4
  store i32 1, ptr %11, align 4
  br label %130

130:                                              ; preds = %123, %111, %68
  call void @llvm.lifetime.end.p0(i64 4, ptr %10) #5
  call void @llvm.lifetime.end.p0(i64 4, ptr %9) #5
  call void @llvm.lifetime.end.p0(i64 4, ptr %8) #5
  %131 = load i32, ptr %4, align 4
  ret i32 %131
}

; Function Attrs: nounwind uwtable
define internal i32 @avs2_parse(ptr noundef %0, ptr noundef %1, ptr noundef %2, ptr noundef %3, ptr noundef %4, i32 noundef %5) #0 {
  %7 = alloca i32, align 4
  %8 = alloca ptr, align 8
  %9 = alloca ptr, align 8
  %10 = alloca ptr, align 8
  %11 = alloca ptr, align 8
  %12 = alloca ptr, align 8
  %13 = alloca i32, align 4
  %14 = alloca ptr, align 8
  %15 = alloca i32, align 4
  %16 = alloca i32, align 4
  store ptr %0, ptr %8, align 8, !tbaa !4
  store ptr %1, ptr %9, align 8, !tbaa !9
  store ptr %2, ptr %10, align 8, !tbaa !11
  store ptr %3, ptr %11, align 8, !tbaa !14
  store ptr %4, ptr %12, align 8, !tbaa !16
  store i32 %5, ptr %13, align 4, !tbaa !18
  call void @llvm.lifetime.start.p0(i64 8, ptr %14) #5
  %17 = load ptr, ptr %8, align 8, !tbaa !4
  %18 = getelementptr inbounds nuw %struct.AVCodecParserContext, ptr %17, i32 0, i32 0
  %19 = load ptr, ptr %18, align 8, !tbaa !20
  store ptr %19, ptr %14, align 8, !tbaa !24
  call void @llvm.lifetime.start.p0(i64 4, ptr %15) #5
  %20 = load ptr, ptr %8, align 8, !tbaa !4
  %21 = getelementptr inbounds nuw %struct.AVCodecParserContext, ptr %20, i32 0, i32 16
  %22 = load i32, ptr %21, align 8, !tbaa !26
  %23 = and i32 %22, 1
  %24 = icmp ne i32 %23, 0
  br i1 %24, label %25, label %27

25:                                               ; preds = %6
  %26 = load i32, ptr %13, align 4, !tbaa !18
  store i32 %26, ptr %15, align 4, !tbaa !18
  br label %41

27:                                               ; preds = %6
  %28 = load ptr, ptr %14, align 8, !tbaa !24
  %29 = load ptr, ptr %12, align 8, !tbaa !16
  %30 = load i32, ptr %13, align 4, !tbaa !18
  %31 = call i32 @avs2_find_frame_end(ptr noundef %28, ptr noundef %29, i32 noundef %30)
  store i32 %31, ptr %15, align 4, !tbaa !18
  %32 = load ptr, ptr %14, align 8, !tbaa !24
  %33 = load i32, ptr %15, align 4, !tbaa !18
  %34 = call i32 @ff_combine_frame(ptr noundef %32, i32 noundef %33, ptr noundef %12, ptr noundef %13)
  %35 = icmp slt i32 %34, 0
  br i1 %35, label %36, label %40

36:                                               ; preds = %27
  %37 = load ptr, ptr %10, align 8, !tbaa !11
  store ptr null, ptr %37, align 8, !tbaa !16
  %38 = load ptr, ptr %11, align 8, !tbaa !14
  store i32 0, ptr %38, align 4, !tbaa !18
  %39 = load i32, ptr %13, align 4, !tbaa !18
  store i32 %39, ptr %7, align 4
  store i32 1, ptr %16, align 4
  br label %51

40:                                               ; preds = %27
  br label %41

41:                                               ; preds = %40, %25
  %42 = load ptr, ptr %8, align 8, !tbaa !4
  %43 = load ptr, ptr %12, align 8, !tbaa !16
  %44 = load i32, ptr %13, align 4, !tbaa !18
  %45 = load ptr, ptr %9, align 8, !tbaa !9
  call void @parse_avs2_units(ptr noundef %42, ptr noundef %43, i32 noundef %44, ptr noundef %45)
  %46 = load ptr, ptr %12, align 8, !tbaa !16
  %47 = load ptr, ptr %10, align 8, !tbaa !11
  store ptr %46, ptr %47, align 8, !tbaa !16
  %48 = load i32, ptr %13, align 4, !tbaa !18
  %49 = load ptr, ptr %11, align 8, !tbaa !14
  store i32 %48, ptr %49, align 4, !tbaa !18
  %50 = load i32, ptr %15, align 4, !tbaa !18
  store i32 %50, ptr %7, align 4
  store i32 1, ptr %16, align 4
  br label %51

51:                                               ; preds = %41, %36
  call void @llvm.lifetime.end.p0(i64 4, ptr %15) #5
  call void @llvm.lifetime.end.p0(i64 8, ptr %14) #5
  %52 = load i32, ptr %7, align 4
  ret i32 %52
}