; Function Attrs: nounwind uwtable
define internal i32 @avs2_parse(ptr noundef captures(none) %0, ptr noundef %1, ptr noundef writeonly captures(none) %2, ptr noundef writeonly captures(none) %3, ptr noundef %4, i32 noundef %5) #0 {
  %7 = alloca ptr, align 8
  %8 = alloca i32, align 4
  store ptr %4, ptr %7, align 8, !tbaa !4
  store i32 %5, ptr %8, align 4, !tbaa !9
  %9 = getelementptr inbounds nuw i8, ptr %0, i64 184
  %10 = load i32, ptr %9, align 8, !tbaa !11
  %11 = and i32 %10, 1
  %.not = icmp eq i32 %11, 0
  br i1 %.not, label %12, label %47

12:                                               ; preds = %6
  %13 = load ptr, ptr %0, align 8, !tbaa !15
  %14 = getelementptr inbounds nuw i8, ptr %13, i64 24
  %15 = load i32, ptr %14, align 8, !tbaa !16
  %16 = getelementptr inbounds nuw i8, ptr %13, i64 20
  %17 = load i32, ptr %16, align 4, !tbaa !18
  %.not.i = icmp eq i32 %15, 0
  br i1 %.not.i, label %.preheader55.i, label %.thread.i

.preheader55.i:                                   ; preds = %12
  %18 = icmp sgt i32 %5, 0
  br i1 %18, label %.lr.ph.preheader.i, label %.loopexit.i

.lr.ph.preheader.i:                               ; preds = %.preheader55.i
  %wide.trip.count.i = zext nneg i32 %5 to i64
  br label %.lr.ph.i

.lr.ph.i:                                         ; preds = %29, %.lr.ph.preheader.i
  %indvars.iv.i = phi i64 [ 0, %.lr.ph.preheader.i ], [ %indvars.iv.next.i, %29 ]
  %.13861.i = phi i32 [ %17, %.lr.ph.preheader.i ], [ %23, %29 ]
  %19 = shl i32 %.13861.i, 8
  %20 = getelementptr inbounds nuw i8, ptr %4, i64 %indvars.iv.i
  %21 = load i8, ptr %20, align 1, !tbaa !19
  %22 = zext i8 %21 to i32
  %23 = or disjoint i32 %19, %22
  %24 = icmp eq i32 %19, 256
  br i1 %24, label %25, label %29

25:                                               ; preds = %.lr.ph.i
  switch i8 %21, label %29 [
    i8 -77, label %26
    i8 -74, label %26
  ]

26:                                               ; preds = %25, %25
  %27 = trunc nuw nsw i64 %indvars.iv.i to i32
  %28 = add nuw nsw i32 %27, 1
  br label %.thread.i

29:                                               ; preds = %25, %.lr.ph.i
  %indvars.iv.next.i = add nuw nsw i64 %indvars.iv.i, 1
  %exitcond.not.i = icmp eq i64 %indvars.iv.next.i, %wide.trip.count.i
  br i1 %exitcond.not.i, label %.loopexit.i, label %.lr.ph.i, !llvm.loop !20

.thread.i:                                        ; preds = %26, %12
  %.054.i = phi i32 [ %28, %26 ], [ 0, %12 ]
  %.03753.i = phi i32 [ %23, %26 ], [ %17, %12 ]
  %.04051.i = phi i32 [ 1, %26 ], [ %15, %12 ]
  %.not46.i = icmp eq i32 %5, 0
  br i1 %.not46.i, label %avs2_find_frame_end.exit, label %.preheader.i

.preheader.i:                                     ; preds = %.thread.i
  %30 = icmp slt i32 %.054.i, %5
  br i1 %30, label %.lr.ph65.preheader.i, label %.loopexit.i

.lr.ph65.preheader.i:                             ; preds = %.preheader.i
  %31 = zext nneg i32 %.054.i to i64
  %wide.trip.count76.i = zext i32 %5 to i64
  br label %.lr.ph65.i

.lr.ph65.i:                                       ; preds = %42, %.lr.ph65.preheader.i
  %indvars.iv73.i = phi i64 [ %31, %.lr.ph65.preheader.i ], [ %indvars.iv.next74.i, %42 ]
  %.363.i = phi i32 [ %.03753.i, %.lr.ph65.preheader.i ], [ %36, %42 ]
  %32 = shl i32 %.363.i, 8
  %33 = getelementptr inbounds nuw i8, ptr %4, i64 %indvars.iv73.i
  %34 = load i8, ptr %33, align 1, !tbaa !19
  %35 = zext i8 %34 to i32
  %36 = or disjoint i32 %32, %35
  %37 = icmp eq i32 %32, 256
  br i1 %37, label %38, label %42

38:                                               ; preds = %.lr.ph65.i
  switch i8 %34, label %42 [
    i8 -80, label %39
    i8 -77, label %39
    i8 -74, label %39
  ]

39:                                               ; preds = %38, %38, %38
  %40 = trunc nuw nsw i64 %indvars.iv73.i to i32
  store i32 0, ptr %14, align 8, !tbaa !16
  store i32 -1, ptr %16, align 4, !tbaa !18
  %41 = add nsw i32 %40, -3
  br label %avs2_find_frame_end.exit

42:                                               ; preds = %38, %.lr.ph65.i
  %indvars.iv.next74.i = add nuw nsw i64 %indvars.iv73.i, 1
  %exitcond77.not.i = icmp eq i64 %indvars.iv.next74.i, %wide.trip.count76.i
  br i1 %exitcond77.not.i, label %.loopexit.i, label %.lr.ph65.i, !llvm.loop !22

.loopexit.i:                                      ; preds = %29, %42, %.preheader.i, %.preheader55.i
  %.04052.i = phi i32 [ %.04051.i, %.preheader.i ], [ 0, %.preheader55.i ], [ %.04051.i, %42 ], [ 0, %29 ]
  %.239.i = phi i32 [ %.03753.i, %.preheader.i ], [ %17, %.preheader55.i ], [ %36, %42 ], [ %23, %29 ]
  store i32 %.04052.i, ptr %14, align 8, !tbaa !16
  store i32 %.239.i, ptr %16, align 4, !tbaa !18
  br label %avs2_find_frame_end.exit

avs2_find_frame_end.exit:                         ; preds = %.thread.i, %39, %.loopexit.i
  %.041.i = phi i32 [ %41, %39 ], [ -100, %.loopexit.i ], [ -100, %.thread.i ]
  %43 = call i32 @ff_combine_frame(ptr noundef %13, i32 noundef %.041.i, ptr noundef nonnull %7, ptr noundef nonnull %8) #3
  %44 = icmp slt i32 %43, 0
  br i1 %44, label %45, label %thread-pre-split

45:                                               ; preds = %avs2_find_frame_end.exit
  store ptr null, ptr %2, align 8, !tbaa !4
  store i32 0, ptr %3, align 4, !tbaa !9
  %46 = load i32, ptr %8, align 4, !tbaa !9
  br label %84

thread-pre-split:                                 ; preds = %avs2_find_frame_end.exit
  %.pr = load i32, ptr %8, align 4, !tbaa !9
  %.pre = load ptr, ptr %7, align 8, !tbaa !4
  br label %47

47:                                               ; preds = %thread-pre-split, %6
  %48 = phi ptr [ %.pre, %thread-pre-split ], [ %4, %6 ]
  %49 = phi i32 [ %.pr, %thread-pre-split ], [ %5, %6 ]
  %.0 = phi i32 [ %.041.i, %thread-pre-split ], [ %5, %6 ]
  %50 = icmp slt i32 %49, 5
  br i1 %50, label %parse_avs2_units.exit, label %51

51:                                               ; preds = %47
  %52 = load i8, ptr %48, align 1, !tbaa !19
  %53 = icmp eq i8 %52, 0
  br i1 %53, label %54, label %parse_avs2_units.exit

54:                                               ; preds = %51
  %55 = getelementptr inbounds nuw i8, ptr %48, i64 1
  %56 = load i8, ptr %55, align 1, !tbaa !19
  %57 = icmp eq i8 %56, 0
  br i1 %57, label %58, label %parse_avs2_units.exit

58:                                               ; preds = %54
  %59 = getelementptr inbounds nuw i8, ptr %48, i64 2
  %60 = load i8, ptr %59, align 1, !tbaa !19
  %61 = icmp eq i8 %60, 1
  br i1 %61, label %62, label %parse_avs2_units.exit

62:                                               ; preds = %58
  %63 = getelementptr inbounds nuw i8, ptr %48, i64 3
  %64 = load i8, ptr %63, align 1, !tbaa !19
  switch i8 %64, label %parse_avs2_units.exit [
    i8 -80, label %65
    i8 -77, label %68
    i8 -74, label %71
  ]

65:                                               ; preds = %62
  %66 = getelementptr inbounds nuw i8, ptr %48, i64 4
  %67 = add nsw i32 %49, -4
  call fastcc void @parse_avs2_seq_header(ptr noundef %0, ptr noundef nonnull readonly %66, i32 noundef %67, ptr noundef %1)
  %.pre23 = load ptr, ptr %7, align 8, !tbaa !4
  %.pre24 = load i32, ptr %8, align 4, !tbaa !9
  br label %parse_avs2_units.exit

68:                                               ; preds = %62
  %69 = getelementptr inbounds nuw i8, ptr %0, i64 232
  store i32 1, ptr %69, align 8, !tbaa !23
  %70 = getelementptr inbounds nuw i8, ptr %0, i64 40
  store i32 1, ptr %70, align 8, !tbaa !24
  br label %parse_avs2_units.exit

71:                                               ; preds = %62
  %72 = getelementptr inbounds nuw i8, ptr %0, i64 232
  store i32 0, ptr %72, align 8, !tbaa !23
  %73 = icmp samesign ugt i32 %49, 9
  br i1 %73, label %74, label %parse_avs2_units.exit

74:                                               ; preds = %71
  %75 = getelementptr inbounds nuw i8, ptr %48, i64 8
  %76 = load i8, ptr %75, align 1, !tbaa !19
  %77 = and i8 %76, 3
  %78 = getelementptr inbounds nuw i8, ptr %0, i64 40
  switch i8 %77, label %81 [
    i8 1, label %79
    i8 3, label %80
  ]

79:                                               ; preds = %74
  store i32 2, ptr %78, align 8, !tbaa !24
  br label %parse_avs2_units.exit

80:                                               ; preds = %74
  store i32 4, ptr %78, align 8, !tbaa !24
  br label %parse_avs2_units.exit

81:                                               ; preds = %74
  store i32 3, ptr %78, align 8, !tbaa !24
  br label %parse_avs2_units.exit

parse_avs2_units.exit:                            ; preds = %47, %51, %54, %58, %62, %65, %68, %71, %79, %80, %81
  %82 = phi i32 [ %49, %47 ], [ %49, %51 ], [ %49, %54 ], [ %49, %58 ], [ %49, %62 ], [ %.pre24, %65 ], [ %49, %68 ], [ %49, %71 ], [ %49, %79 ], [ %49, %80 ], [ %49, %81 ]
  %83 = phi ptr [ %48, %47 ], [ %48, %51 ], [ %48, %54 ], [ %48, %58 ], [ %48, %62 ], [ %.pre23, %65 ], [ %48, %68 ], [ %48, %71 ], [ %48, %79 ], [ %48, %80 ], [ %48, %81 ]
  store ptr %83, ptr %2, align 8, !tbaa !4
  store i32 %82, ptr %3, align 4, !tbaa !9
  br label %84

84:                                               ; preds = %parse_avs2_units.exit, %45
  %.012 = phi i32 [ %.0, %parse_avs2_units.exit ], [ %46, %45 ]
  ret i32 %.012
}